target datalayout = "e-m:e-p270:32:32-p271:32:32-p272:64:64-i64:64-i128:128-f80:128-n8:16:32:64-S128"
target triple = "x86_64-pc-linux-gnu"

%"class.std::__cxx11::basic_string" = type { %"struct.std::__cxx11::basic_string<char>::_Alloc_hider", i64, %union.anon }
%"struct.std::__cxx11::basic_string<char>::_Alloc_hider" = type { ptr }
%union.anon = type { i64, [8 x i8] }
%"struct.casadi::Options" = type { %"class.std::vector", %"class.std::map" }
%"class.std::vector" = type { %"struct.std::_Vector_base" }
%"struct.std::_Vector_base" = type { %"struct.std::_Vector_base<const casadi::Options *, std::allocator<const casadi::Options *>>::_Vector_impl" }
%"struct.std::_Vector_base<const casadi::Options *, std::allocator<const casadi::Options *>>::_Vector_impl" = type { %"struct.std::_Vector_base<const casadi::Options *, std::allocator<const casadi::Options *>>::_Vector_impl_data" }
%"struct.std::_Vector_base<const casadi::Options *, std::allocator<const casadi::Options *>>::_Vector_impl_data" = type { ptr, ptr, ptr }
%"class.std::map" = type { %"class.std::_Rb_tree" }
%"class.std::_Rb_tree" = type { %"struct.std::_Rb_tree<std::__cxx11::basic_string<char>, std::pair<const std::__cxx11::basic_string<char>, casadi::Options::Entry>, std::_Select1st<std::pair<const std::__cxx11::basic_string<char>, casadi::Options::Entry>>, std::less<std::__cxx11::basic_string<char>>>::_Rb_tree_impl" }
%"struct.std::_Rb_tree<std::__cxx11::basic_string<char>, std::pair<const std::__cxx11::basic_string<char>, casadi::Options::Entry>, std::_Select1st<std::pair<const std::__cxx11::basic_string<char>, casadi::Options::Entry>>, std::less<std::__cxx11::basic_string<char>>>::_Rb_tree_impl" = type { %"struct.std::_Rb_tree_key_compare", %"struct.std::_Rb_tree_header" }
%"struct.std::_Rb_tree_key_compare" = type { %"struct.std::less" }
%"struct.std::less" = type { i8 }
%"struct.std::_Rb_tree_header" = type { %"struct.std::_Rb_tree_node_base", i64 }
%"struct.std::_Rb_tree_node_base" = type { i32, ptr, ptr, ptr }
%"struct.casadi::PluginInterface<casadi::LinsolInternal>::Plugin" = type { ptr, ptr, ptr, i32, %"struct.casadi::LinsolInternal::Exposed", ptr, ptr }
%"struct.casadi::LinsolInternal::Exposed" = type { i8 }

@.str = private unnamed_addr constant [8 x i8] c"csparse\00", align 1
@_ZN6casadi16CsparseInterface8meta_docB5cxx11E = external global %"class.std::__cxx11::basic_string", align 8
@_ZN6casadi13ProtoFunction8options_E = external global %"struct.casadi::Options", align 8

; Function Attrs: mustprogress nounwind uwtable
define i32 @casadi_register_linsol_csparse(ptr noundef %0) #4 {
  %2 = alloca ptr, align 8
  store ptr %0, ptr %2, align 8
  %3 = load ptr, ptr %2, align 8
  %4 = getelementptr inbounds %"struct.casadi::PluginInterface<casadi::LinsolInternal>::Plugin", ptr %3, i32 0, i32 0
  store ptr @_ZN6casadi16CsparseInterface7creatorERKNSt7__cxx1112basic_stringIcSt11char_traitsIcESaIcEEERKNS_8SparsityE, ptr %4, align 8
  %5 = load ptr, ptr %2, align 8
  %6 = getelementptr inbounds %"struct.casadi::PluginInterface<casadi::LinsolInternal>::Plugin", ptr %5, i32 0, i32 1
  store ptr @.str, ptr %6, align 8
  %7 = call noundef ptr @_ZNKSt7__cxx1112basic_stringIcSt11char_traitsIcESaIcEE5c_strEv(ptr noundef nonnull align 8 dereferenceable(32) @_ZN6casadi16CsparseInterface8meta_docB5cxx11E) #3
  %8 = load ptr, ptr %2, align 8
  %9 = getelementptr inbounds %"struct.casadi::PluginInterface<casadi::LinsolInternal>::Plugin", ptr %8, i32 0, i32 2
  store ptr %7, ptr %9, align 8
  %10 = load ptr, ptr %2, align 8
  %11 = getelementptr inbounds %"struct.casadi::PluginInterface<casadi::LinsolInternal>::Plugin", ptr %10, i32 0, i32 3
  store i32 31, ptr %11, align 8
  %12 = load ptr, ptr %2, align 8
  %13 = getelementptr inbounds %"struct.casadi::PluginInterface<casadi::LinsolInternal>::Plugin", ptr %12, i32 0, i32 5
  store ptr @_ZN6casadi13ProtoFunction8options_E, ptr %13, align 8
  %14 = load ptr, ptr %2, align 8
  %15 = getelementptr inbounds %"struct.casadi::PluginInterface<casadi::LinsolInternal>::Plugin", ptr %14, i32 0, i32 6
  store ptr @_ZN6casadi16CsparseInterface11deserializeERNS_19DeserializingStreamE, ptr %15, align 8
  ret i32 0
}